#include <math.h>
#include <stdio.h>
#include <stdlib.h>
#include <string.h>

int main()
{
	int n,m,i,j,k;
	scanf("%d",&n);
	for(i=3;i<=(n/2);i=i+2)
	{
		for(j=2;j<=sqrt(i);j++)
		{
			if(i%j==0)
				break;
		}
		if(j>sqrt(i))
		{
			m=n-i;
			for(k=2;k<=sqrt(m);k++)
			{
				if(m%k==0)
					break;
			}
			if(k>sqrt(m))
			{
				printf("%d %d",i,n-i);
				printf("\n");
			}
		}
	}
	return 0;
}